; Function Attrs: mustprogress nofree norecurse nosync nounwind willreturn memory(argmem: read) uwtable
define dso_local noundef float @_Z15btGetMatrixElemRK11b3Matrix3x3i(ptr noundef nonnull readonly align 16 captures(none) dereferenceable(48) %0, i32 noundef %1) local_unnamed_addr #3 {
  %3 = srem i32 %1, 3
  %4 = sdiv i32 %1, 3
  %5 = sext i32 %3 to i64
  %6 = getelementptr inbounds [3 x %class.b3Vector3], ptr %0, i64 0, i64 %5
  %7 = sext i32 %4 to i64
  %8 = getelementptr inbounds float, ptr %6, i64 %7
  %9 = load float, ptr %8, align 4, !tbaa !16
  ret float %9
}